(dp0
S'take0'
p1
(lp2
F0.32493090135876446
aF0.3022501501288226
asS'take10'
p3
(lp4
F0.38493090135876445
aF0.4222501501288226
asS'take11'
p5
(lp6
F0.44493090135876445
aF0.4222501501288226
asS'take12'
p7
(lp8
F0.5049309013587644
aF0.4222501501288226
asS'take1'
p9
(lp10
F0.38493090135876445
aF0.3022501501288226
asS'take8'
p11
(lp12
F0.5049309013587644
aF0.3622501501288226
asS'C0'
p13
(lp14
F0.6574610507927844
aF-0.04351071798644777
asS'take9'
p15
(lp16
F0.32493090135876446
aF0.4222501501288226
asS'C7'
p17
(lp18
F0.32493090135876446
aF-0.04351071798644777
asS'G7'
p19
(lp20
F0.32493090135876446
aF0.1530979765057685
asS'G6'
p21
(lp22
F0.3724352084207673
aF0.1530979765057685
asS'G5'
p23
(lp24
F0.4199395154827702
aF0.1530979765057685
asS'G4'
p25
(lp26
F0.46744382254477307
aF0.1530979765057685
asS'zoffset'
p27
F-0.23344076228646696
sS'G2'
p28
(lp29
F0.5624524366687788
aF0.1530979765057685
asS'G1'
p30
(lp31
F0.6099567437307816
aF0.1530979765057685
asS'G0'
p32
(lp33
F0.6574610507927844
aF0.1530979765057685
asS'C4'
p34
(lp35
F0.46744382254477307
aF-0.04351071798644777
asS'take5'
p36
(lp37
F0.32493090135876446
aF0.3622501501288226
asS'A1'
p38
(lp39
F0.6099567437307816
aF-0.1418150652325559
asS'A0'
p40
(lp41
F0.6574610507927844
aF-0.1418150652325559
asS'A3'
p42
(lp43
F0.5149481296067759
aF-0.1418150652325559
asS'A2'
p44
(lp45
F0.5624524366687788
aF-0.1418150652325559
asS'A5'
p46
(lp47
F0.4199395154827702
aF-0.1418150652325559
asS'A4'
p48
(lp49
F0.46744382254477307
aF-0.1418150652325559
asS'A7'
p50
(lp51
F0.32493090135876446
aF-0.1418150652325559
asS'A6'
p52
(lp53
F0.3724352084207673
aF-0.1418150652325559
asS'C3'
p54
(lp55
F0.5149481296067759
aF-0.04351071798644777
asS'C2'
p56
(lp57
F0.5624524366687788
aF-0.04351071798644777
asS'C1'
p58
(lp59
F0.6099567437307816
aF-0.04351071798644777
asS'E6'
p60
(lp61
F0.3724352084207673
aF0.054793629259660366
asS'E1'
p62
(lp63
F0.6099567437307816
aF0.054793629259660366
asS'C6'
p64
(lp65
F0.3724352084207673
aF-0.04351071798644777
asS'C5'
p66
(lp67
F0.4199395154827702
aF-0.04351071798644777
asS'E2'
p68
(lp69
F0.5624524366687788
aF0.054793629259660366
asS'E0'
p70
(lp71
F0.6574610507927844
aF0.054793629259660366
asS'take7'
p72
(lp73
F0.44493090135876445
aF0.3622501501288226
asS'take2'
p74
(lp75
F0.44493090135876445
aF0.3022501501288226
asS'take4'
p76
(lp77
F0.5649309013587644
aF0.3022501501288226
asS'E3'
p78
(lp79
F0.5149481296067759
aF0.054793629259660366
asS'E5'
p80
(lp81
F0.4199395154827702
aF0.054793629259660366
asS'campos'
p82
(lp83
F0.5774610507927844
aF0.2981849347674441
aF0.22855923771353306
asS'take6'
p84
(lp85
F0.38493090135876445
aF0.3622501501288226
asS'E4'
p86
(lp87
F0.46744382254477307
aF0.054793629259660366
asS'G3'
p88
(lp89
F0.5149481296067759
aF0.1530979765057685
asS'E7'
p90
(lp91
F0.32493090135876446
aF0.054793629259660366
asS'take3'
p92
(lp93
F0.5049309013587644
aF0.3022501501288226
asS'F0'
p94
(lp95
F0.6574610507927844
aF0.10394580288271443
asS'F1'
p96
(lp97
F0.6099567437307816
aF0.10394580288271443
asS'F2'
p98
(lp99
F0.5624524366687788
aF0.10394580288271443
asS'F3'
p100
(lp101
F0.5149481296067759
aF0.10394580288271443
asS'F4'
p102
(lp103
F0.46744382254477307
aF0.10394580288271443
asS'F5'
p104
(lp105
F0.4199395154827702
aF0.10394580288271443
asS'F6'
p106
(lp107
F0.3724352084207673
aF0.10394580288271443
asS'F7'
p108
(lp109
F0.32493090135876446
aF0.10394580288271443
asS'H2'
p110
(lp111
F0.5624524366687788
aF0.20225015012882258
asS'H3'
p112
(lp113
F0.5149481296067759
aF0.20225015012882258
asS'H0'
p114
(lp115
F0.6574610507927844
aF0.20225015012882258
asS'H1'
p116
(lp117
F0.6099567437307816
aF0.20225015012882258
asS'H6'
p118
(lp119
F0.3724352084207673
aF0.20225015012882258
asS'H7'
p120
(lp121
F0.32493090135876446
aF0.20225015012882258
asS'H4'
p122
(lp123
F0.46744382254477307
aF0.20225015012882258
asS'H5'
p124
(lp125
F0.4199395154827702
aF0.20225015012882258
asS'B4'
p126
(lp127
F0.46744382254477307
aF-0.09266289160950184
asS'B5'
p128
(lp129
F0.4199395154827702
aF-0.09266289160950184
asS'B6'
p130
(lp131
F0.3724352084207673
aF-0.09266289160950184
asS'B7'
p132
(lp133
F0.32493090135876446
aF-0.09266289160950184
asS'B0'
p134
(lp135
F0.6574610507927844
aF-0.09266289160950184
asS'B1'
p136
(lp137
F0.6099567437307816
aF-0.09266289160950184
asS'B2'
p138
(lp139
F0.5624524366687788
aF-0.09266289160950184
asS'B3'
p140
(lp141
F0.5149481296067759
aF-0.09266289160950184
asS'D6'
p142
(lp143
F0.3724352084207673
aF0.005641455636606299
asS'D7'
p144
(lp145
F0.32493090135876446
aF0.005641455636606299
asS'D4'
p146
(lp147
F0.46744382254477307
aF0.005641455636606299
asS'D5'
p148
(lp149
F0.4199395154827702
aF0.005641455636606299
asS'D2'
p150
(lp151
F0.5624524366687788
aF0.005641455636606299
asS'D3'
p152
(lp153
F0.5149481296067759
aF0.005641455636606299
asS'D0'
p154
(lp155
F0.6574610507927844
aF0.005641455636606299
asS'D1'
p156
(lp157
F0.6099567437307816
aF0.005641455636606299
as.